target datalayout = "e-m:e-p270:32:32-p271:32:32-p272:64:64-i64:64-i128:128-f80:128-n8:16:32:64-S128"
target triple = "x86_64-pc-linux-gnu"

%struct._generic_ARKInterp = type { ptr, ptr }
%struct._ARKInterpContent_Hermite = type { i32, ptr, ptr, ptr, ptr, double, double, double }

@__func__.arkInterpSetDegree_Hermite = private unnamed_addr constant [27 x i8] c"arkInterpSetDegree_Hermite\00", align 1
@.str.4 = private unnamed_addr constant [122 x i8] c"generated/home/dtcxzyw/WorkSpace/Projects/compilers/llvm-opt-benchmark/bench/sundials/sundials/src/arkode/arkode_interp.c\00", align 1
@.str.5 = private unnamed_addr constant [26 x i8] c"Illegal degree specified.\00", align 1

; Function Attrs: nounwind uwtable
define i32 @arkInterpSetDegree_Hermite(ptr noundef %0, ptr noundef %1, i32 noundef %2) #0 {
  %4 = alloca i32, align 4
  %5 = alloca ptr, align 8
  %6 = alloca ptr, align 8
  %7 = alloca i32, align 4
  store ptr %0, ptr %5, align 8, !tbaa !3
  store ptr %1, ptr %6, align 8, !tbaa !8
  store i32 %2, ptr %7, align 4, !tbaa !24
  %8 = load i32, ptr %7, align 4, !tbaa !24
  %9 = icmp sgt i32 %8, 5
  br i1 %9, label %13, label %10

10:                                               ; preds = %3
  %11 = load i32, ptr %7, align 4, !tbaa !24
  %12 = icmp slt i32 %11, 0
  br i1 %12, label %13, label %15

13:                                               ; preds = %10, %3
  %14 = load ptr, ptr %5, align 8, !tbaa !3
  call void (ptr, i32, i32, ptr, ptr, ptr, ...) @arkProcessError(ptr noundef %14, i32 noundef -40, i32 noundef 307, ptr noundef @__func__.arkInterpSetDegree_Hermite, ptr noundef @.str.4, ptr noundef @.str.5)
  store i32 -22, ptr %4, align 4
  br label %21

15:                                               ; preds = %10
  %16 = load i32, ptr %7, align 4, !tbaa !24
  %17 = load ptr, ptr %6, align 8, !tbaa !8
  %18 = getelementptr inbounds nuw %struct._generic_ARKInterp, ptr %17, i32 0, i32 0
  %19 = load ptr, ptr %18, align 8, !tbaa !35
  %20 = getelementptr inbounds nuw %struct._ARKInterpContent_Hermite, ptr %19, i32 0, i32 0
  store i32 %16, ptr %20, align 8, !tbaa !41
  store i32 0, ptr %4, align 4
  br label %21

21:                                               ; preds = %15, %13
  %22 = load i32, ptr %4, align 4
  ret i32 %22
}